target datalayout = "e-m:e-p270:32:32-p271:32:32-p272:64:64-i64:64-i128:128-f80:128-n8:16:32:64-S128"
target triple = "x86_64-pc-linux-gnu"

%struct.AVComplexFloat = type { float, float }

; Function Attrs: nounwind uwtable
define internal void @lininterp(ptr noundef %0, ptr noundef %1, ptr noundef %2, ptr noundef %3, i32 noundef %4, i32 noundef %5) #1 {
  %7 = alloca ptr, align 8
  %8 = alloca ptr, align 8
  %9 = alloca ptr, align 8
  %10 = alloca ptr, align 8
  %11 = alloca i32, align 4
  %12 = alloca i32, align 4
  %13 = alloca i32, align 4
  %14 = alloca i32, align 4
  %15 = alloca i32, align 4
  %16 = alloca float, align 4
  %17 = alloca float, align 4
  %18 = alloca float, align 4
  store ptr %0, ptr %7, align 8, !tbaa !108
  store ptr %1, ptr %8, align 8, !tbaa !81
  store ptr %2, ptr %9, align 8, !tbaa !81
  store ptr %3, ptr %10, align 8, !tbaa !81
  store i32 %4, ptr %11, align 4, !tbaa !33
  store i32 %5, ptr %12, align 4, !tbaa !33
  call void @llvm.lifetime.start.p0(i64 4, ptr %13) #10
  store i32 0, ptr %13, align 4, !tbaa !33
  br label %19

19:                                               ; preds = %151, %6
  %20 = load i32, ptr %13, align 4, !tbaa !33
  %21 = load i32, ptr %12, align 4, !tbaa !33
  %22 = icmp slt i32 %20, %21
  br i1 %22, label %24, label %23

23:                                               ; preds = %19
  store i32 2, ptr %14, align 4
  call void @llvm.lifetime.end.p0(i64 4, ptr %13) #10
  br label %154

24:                                               ; preds = %19
  call void @llvm.lifetime.start.p0(i64 4, ptr %15) #10
  store i32 1, ptr %15, align 4, !tbaa !33
  br label %25

25:                                               ; preds = %146, %24
  %26 = load i32, ptr %15, align 4, !tbaa !33
  %27 = load i32, ptr %11, align 4, !tbaa !33
  %28 = icmp slt i32 %26, %27
  br i1 %28, label %30, label %29

29:                                               ; preds = %25
  store i32 5, ptr %14, align 4
  br label %149

30:                                               ; preds = %25
  call void @llvm.lifetime.start.p0(i64 4, ptr %16) #10
  %31 = load i32, ptr %13, align 4, !tbaa !33
  %32 = sitofp i32 %31 to float
  %33 = load i32, ptr %12, align 4, !tbaa !33
  %34 = sitofp i32 %33 to float
  %35 = fdiv nsz float %32, %34
  store float %35, ptr %16, align 4, !tbaa !56
  %36 = load float, ptr %16, align 4, !tbaa !56
  %37 = load ptr, ptr %8, align 8, !tbaa !81
  %38 = load i32, ptr %15, align 4, !tbaa !33
  %39 = sext i32 %38 to i64
  %40 = getelementptr inbounds float, ptr %37, i64 %39
  %41 = load float, ptr %40, align 4, !tbaa !56
  %42 = fcmp nsz ole float %36, %41
  br i1 %42, label %43, label %142

43:                                               ; preds = %30
  call void @llvm.lifetime.start.p0(i64 4, ptr %17) #10
  %44 = load float, ptr %16, align 4, !tbaa !56
  %45 = load ptr, ptr %8, align 8, !tbaa !81
  %46 = load i32, ptr %15, align 4, !tbaa !33
  %47 = sub nsw i32 %46, 1
  %48 = sext i32 %47 to i64
  %49 = getelementptr inbounds float, ptr %45, i64 %48
  %50 = load float, ptr %49, align 4, !tbaa !56
  %51 = fsub nsz float %44, %50
  %52 = load ptr, ptr %8, align 8, !tbaa !81
  %53 = load i32, ptr %15, align 4, !tbaa !33
  %54 = sext i32 %53 to i64
  %55 = getelementptr inbounds float, ptr %52, i64 %54
  %56 = load float, ptr %55, align 4, !tbaa !56
  %57 = load ptr, ptr %8, align 8, !tbaa !81
  %58 = load i32, ptr %15, align 4, !tbaa !33
  %59 = sub nsw i32 %58, 1
  %60 = sext i32 %59 to i64
  %61 = getelementptr inbounds float, ptr %57, i64 %60
  %62 = load float, ptr %61, align 4, !tbaa !56
  %63 = fsub nsz float %56, %62
  %64 = fdiv nsz float %51, %63
  %65 = load ptr, ptr %9, align 8, !tbaa !81
  %66 = load i32, ptr %15, align 4, !tbaa !33
  %67 = sext i32 %66 to i64
  %68 = getelementptr inbounds float, ptr %65, i64 %67
  %69 = load float, ptr %68, align 4, !tbaa !56
  %70 = load ptr, ptr %9, align 8, !tbaa !81
  %71 = load i32, ptr %15, align 4, !tbaa !33
  %72 = sub nsw i32 %71, 1
  %73 = sext i32 %72 to i64
  %74 = getelementptr inbounds float, ptr %70, i64 %73
  %75 = load float, ptr %74, align 4, !tbaa !56
  %76 = fsub nsz float %69, %75
  %77 = load ptr, ptr %9, align 8, !tbaa !81
  %78 = load i32, ptr %15, align 4, !tbaa !33
  %79 = sub nsw i32 %78, 1
  %80 = sext i32 %79 to i64
  %81 = getelementptr inbounds float, ptr %77, i64 %80
  %82 = load float, ptr %81, align 4, !tbaa !56
  %83 = call nsz float @llvm.fmuladd.f32(float %64, float %76, float %82)
  store float %83, ptr %17, align 4, !tbaa !56
  call void @llvm.lifetime.start.p0(i64 4, ptr %18) #10
  %84 = load float, ptr %16, align 4, !tbaa !56
  %85 = load ptr, ptr %8, align 8, !tbaa !81
  %86 = load i32, ptr %15, align 4, !tbaa !33
  %87 = sub nsw i32 %86, 1
  %88 = sext i32 %87 to i64
  %89 = getelementptr inbounds float, ptr %85, i64 %88
  %90 = load float, ptr %89, align 4, !tbaa !56
  %91 = fsub nsz float %84, %90
  %92 = load ptr, ptr %8, align 8, !tbaa !81
  %93 = load i32, ptr %15, align 4, !tbaa !33
  %94 = sext i32 %93 to i64
  %95 = getelementptr inbounds float, ptr %92, i64 %94
  %96 = load float, ptr %95, align 4, !tbaa !56
  %97 = load ptr, ptr %8, align 8, !tbaa !81
  %98 = load i32, ptr %15, align 4, !tbaa !33
  %99 = sub nsw i32 %98, 1
  %100 = sext i32 %99 to i64
  %101 = getelementptr inbounds float, ptr %97, i64 %100
  %102 = load float, ptr %101, align 4, !tbaa !56
  %103 = fsub nsz float %96, %102
  %104 = fdiv nsz float %91, %103
  %105 = load ptr, ptr %10, align 8, !tbaa !81
  %106 = load i32, ptr %15, align 4, !tbaa !33
  %107 = sext i32 %106 to i64
  %108 = getelementptr inbounds float, ptr %105, i64 %107
  %109 = load float, ptr %108, align 4, !tbaa !56
  %110 = load ptr, ptr %10, align 8, !tbaa !81
  %111 = load i32, ptr %15, align 4, !tbaa !33
  %112 = sub nsw i32 %111, 1
  %113 = sext i32 %112 to i64
  %114 = getelementptr inbounds float, ptr %110, i64 %113
  %115 = load float, ptr %114, align 4, !tbaa !56
  %116 = fsub nsz float %109, %115
  %117 = load ptr, ptr %10, align 8, !tbaa !81
  %118 = load i32, ptr %15, align 4, !tbaa !33
  %119 = sub nsw i32 %118, 1
  %120 = sext i32 %119 to i64
  %121 = getelementptr inbounds float, ptr %117, i64 %120
  %122 = load float, ptr %121, align 4, !tbaa !56
  %123 = call nsz float @llvm.fmuladd.f32(float %104, float %116, float %122)
  store float %123, ptr %18, align 4, !tbaa !56
  %124 = load float, ptr %17, align 4, !tbaa !56
  %125 = load float, ptr %18, align 4, !tbaa !56
  %126 = call nsz float @llvm.cos.f32(float %125)
  %127 = fmul nsz float %124, %126
  %128 = load ptr, ptr %7, align 8, !tbaa !108
  %129 = load i32, ptr %13, align 4, !tbaa !33
  %130 = sext i32 %129 to i64
  %131 = getelementptr inbounds %struct.AVComplexFloat, ptr %128, i64 %130
  %132 = getelementptr inbounds nuw %struct.AVComplexFloat, ptr %131, i32 0, i32 0
  store float %127, ptr %132, align 4, !tbaa !74
  %133 = load float, ptr %17, align 4, !tbaa !56
  %134 = load float, ptr %18, align 4, !tbaa !56
  %135 = call nsz float @llvm.sin.f32(float %134)
  %136 = fmul nsz float %133, %135
  %137 = load ptr, ptr %7, align 8, !tbaa !108
  %138 = load i32, ptr %13, align 4, !tbaa !33
  %139 = sext i32 %138 to i64
  %140 = getelementptr inbounds %struct.AVComplexFloat, ptr %137, i64 %139
  %141 = getelementptr inbounds nuw %struct.AVComplexFloat, ptr %140, i32 0, i32 1
  store float %136, ptr %141, align 4, !tbaa !109
  store i32 5, ptr %14, align 4
  call void @llvm.lifetime.end.p0(i64 4, ptr %18) #10
  call void @llvm.lifetime.end.p0(i64 4, ptr %17) #10
  br label %143

142:                                              ; preds = %30
  store i32 0, ptr %14, align 4
  br label %143

143:                                              ; preds = %142, %43
  call void @llvm.lifetime.end.p0(i64 4, ptr %16) #10
  %144 = load i32, ptr %14, align 4
  switch i32 %144, label %149 [
    i32 0, label %145
  ]

145:                                              ; preds = %143
  br label %146

146:                                              ; preds = %145
  %147 = load i32, ptr %15, align 4, !tbaa !33
  %148 = add nsw i32 %147, 1
  store i32 %148, ptr %15, align 4, !tbaa !33
  br label %25, !llvm.loop !110

149:                                              ; preds = %143, %29
  call void @llvm.lifetime.end.p0(i64 4, ptr %15) #10
  br label %150

150:                                              ; preds = %149
  br label %151

151:                                              ; preds = %150
  %152 = load i32, ptr %13, align 4, !tbaa !33
  %153 = add nsw i32 %152, 1
  store i32 %153, ptr %13, align 4, !tbaa !33
  br label %19, !llvm.loop !111

154:                                              ; preds = %23
  ret void
}