; Function Attrs: nofree norecurse nosync nounwind memory(argmem: readwrite) uwtable
define internal fastcc void @lininterp(ptr noundef writeonly captures(none) %0, ptr noundef readonly captures(none) %1, ptr noundef readonly captures(none) %2, ptr noundef readonly captures(none) %3, i32 noundef %4, i32 noundef range(i32 -1073741824, 1073741824) %5) unnamed_addr #5 {
  %7 = icmp sgt i32 %5, 0
  br i1 %7, label %.preheader.lr.ph, label %._crit_edge

.preheader.lr.ph:                                 ; preds = %6
  %8 = icmp sgt i32 %4, 1
  %9 = uitofp nneg i32 %5 to float
  br i1 %8, label %.preheader.us.preheader, label %._crit_edge

.preheader.us.preheader:                          ; preds = %.preheader.lr.ph
  %wide.trip.count65 = zext nneg i32 %5 to i64
  %wide.trip.count = zext nneg i32 %4 to i64
  br label %.preheader.us

.preheader.us:                                    ; preds = %.preheader.us.preheader, %..loopexit_crit_edge.us
  %indvars.iv62 = phi i64 [ 0, %.preheader.us.preheader ], [ %indvars.iv.next63, %..loopexit_crit_edge.us ]
  %10 = trunc nuw nsw i64 %indvars.iv62 to i32
  %11 = uitofp nneg i32 %10 to float
  %12 = fdiv nsz float %11, %9
  br label %13

13:                                               ; preds = %.preheader.us, %.critedge.us
  %indvars.iv = phi i64 [ 1, %.preheader.us ], [ %indvars.iv.next, %.critedge.us ]
  %14 = getelementptr inbounds nuw float, ptr %1, i64 %indvars.iv
  %15 = load float, ptr %14, align 4, !tbaa !49
  %16 = fcmp nsz ugt float %12, %15
  br i1 %16, label %.critedge.us, label %17

17:                                               ; preds = %13
  %18 = shl i64 %indvars.iv, 32
  %sext = add i64 %18, -4294967296
  %19 = ashr exact i64 %sext, 32
  %20 = getelementptr inbounds float, ptr %1, i64 %19
  %21 = load float, ptr %20, align 4, !tbaa !49
  %22 = fsub nsz float %12, %21
  %23 = fsub nsz float %15, %21
  %24 = fdiv nsz float %22, %23
  %25 = getelementptr inbounds nuw float, ptr %2, i64 %indvars.iv
  %26 = load float, ptr %25, align 4, !tbaa !49
  %27 = getelementptr inbounds float, ptr %2, i64 %19
  %28 = load float, ptr %27, align 4, !tbaa !49
  %29 = fsub nsz float %26, %28
  %30 = tail call nsz float @llvm.fmuladd.f32(float %24, float %29, float %28)
  %31 = getelementptr inbounds nuw float, ptr %3, i64 %indvars.iv
  %32 = load float, ptr %31, align 4, !tbaa !49
  %33 = getelementptr inbounds float, ptr %3, i64 %19
  %34 = load float, ptr %33, align 4, !tbaa !49
  %35 = fsub nsz float %32, %34
  %36 = tail call nsz float @llvm.fmuladd.f32(float %24, float %35, float %34)
  %37 = tail call nsz float @llvm.cos.f32(float %36)
  %38 = fmul nsz float %30, %37
  %39 = getelementptr inbounds nuw %struct.AVComplexFloat, ptr %0, i64 %indvars.iv62
  store float %38, ptr %39, align 4, !tbaa !68
  %40 = tail call nsz float @llvm.sin.f32(float %36)
  %41 = fmul nsz float %30, %40
  %42 = getelementptr inbounds nuw i8, ptr %39, i64 4
  store float %41, ptr %42, align 4, !tbaa !95
  br label %..loopexit_crit_edge.us

..loopexit_crit_edge.us:                          ; preds = %.critedge.us, %17
  %indvars.iv.next63 = add nuw nsw i64 %indvars.iv62, 1
  %exitcond66.not = icmp eq i64 %indvars.iv.next63, %wide.trip.count65
  br i1 %exitcond66.not, label %._crit_edge, label %.preheader.us, !llvm.loop !96

.critedge.us:                                     ; preds = %13
  %indvars.iv.next = add nuw nsw i64 %indvars.iv, 1
  %exitcond.not = icmp eq i64 %indvars.iv.next, %wide.trip.count
  br i1 %exitcond.not, label %..loopexit_crit_edge.us, label %13, !llvm.loop !97

._crit_edge:                                      ; preds = %..loopexit_crit_edge.us, %.preheader.lr.ph, %6
  ret void
}